; Function Attrs: mustprogress nounwind uwtable
define hidden void @_ZN11Block_Array4growEj(ptr nocapture noundef nonnull align 8 dereferenceable(24) %0, i32 noundef %1) local_unnamed_addr #0 align 2 {
  %3 = load i32, ptr %0, align 8
  %4 = icmp ugt i32 %3, %1
  br i1 %4, label %42, label %5

5:                                                ; preds = %2
  %.not = icmp eq i32 %3, 0
  br i1 %.not, label %6, label %21

6:                                                ; preds = %5
  store i32 1, ptr %0, align 8
  %7 = getelementptr inbounds i8, ptr %0, i64 8
  %8 = load ptr, ptr %7, align 8
  %9 = getelementptr inbounds i8, ptr %8, i64 40
  %10 = load ptr, ptr %9, align 8
  %11 = getelementptr inbounds i8, ptr %8, i64 32
  %12 = load ptr, ptr %11, align 8
  %13 = ptrtoint ptr %10 to i64
  %14 = ptrtoint ptr %12 to i64
  %15 = sub i64 %13, %14
  %.not.i.i = icmp ult i64 %15, 8
  br i1 %.not.i.i, label %18, label %16

16:                                               ; preds = %6
  %17 = getelementptr inbounds i8, ptr %12, i64 8
  store ptr %17, ptr %11, align 8
  br label %_ZN5Arena7AmallocEmN17AllocFailStrategy13AllocFailEnumE.exit

18:                                               ; preds = %6
  %19 = tail call noundef ptr @_ZN5Arena4growEmN17AllocFailStrategy13AllocFailEnumE(ptr noundef nonnull align 8 dereferenceable(48) %8, i64 noundef 8, i32 noundef 0) #12
  br label %_ZN5Arena7AmallocEmN17AllocFailStrategy13AllocFailEnumE.exit

_ZN5Arena7AmallocEmN17AllocFailStrategy13AllocFailEnumE.exit: ; preds = %16, %18
  %.0.i.i = phi ptr [ %12, %16 ], [ %19, %18 ]
  %20 = getelementptr inbounds i8, ptr %0, i64 16
  store ptr %.0.i.i, ptr %20, align 8
  store ptr null, ptr %.0.i.i, align 8
  %.pre = load i32, ptr %0, align 8
  br label %21

21:                                               ; preds = %_ZN5Arena7AmallocEmN17AllocFailStrategy13AllocFailEnumE.exit, %5
  %22 = phi i32 [ %.pre, %_ZN5Arena7AmallocEmN17AllocFailStrategy13AllocFailEnumE.exit ], [ %3, %5 ]
  %23 = add i32 %1, 1
  %24 = tail call range(i32 0, 33) i32 @llvm.ctpop.i32(i32 %23)
  %or.cond.i.i = icmp eq i32 %24, 1
  %25 = tail call range(i32 0, 33) i32 @llvm.ctlz.i32(i32 %23, i1 true)
  %26 = sub nuw nsw i32 32, %25
  %27 = shl nuw i32 1, %26
  %.0.i.i6 = select i1 %or.cond.i.i, i32 %23, i32 %27
  store i32 %.0.i.i6, ptr %0, align 8
  %28 = getelementptr inbounds i8, ptr %0, i64 8
  %29 = load ptr, ptr %28, align 8
  %30 = getelementptr inbounds i8, ptr %0, i64 16
  %31 = load ptr, ptr %30, align 8
  %32 = zext i32 %22 to i64
  %33 = shl nuw nsw i64 %32, 3
  %34 = zext i32 %.0.i.i6 to i64
  %35 = shl nuw nsw i64 %34, 3
  %36 = tail call noundef ptr @_ZN5Arena8AreallocEPvmmN17AllocFailStrategy13AllocFailEnumE(ptr noundef nonnull align 8 dereferenceable(48) %29, ptr noundef %31, i64 noundef %33, i64 noundef %35, i32 noundef 0) #12
  store ptr %36, ptr %30, align 8
  %37 = getelementptr inbounds ptr, ptr %36, i64 %32
  %38 = load i32, ptr %0, align 8
  %39 = sub i32 %38, %22
  %40 = zext i32 %39 to i64
  %41 = shl nuw nsw i64 %40, 3
  tail call void @llvm.memset.p0.i64(ptr align 1 %37, i8 0, i64 %41, i1 false)
  br label %42

42:                                               ; preds = %2, %21
  ret void
}